(dp0
I0
ccopy_reg
_reconstructor
p1
(cobjects
Box
p2
c__builtin__
object
p3
Ntp4
Rp5
(dp6
S'body'
p7
NsS'angle'
p8
F0.0
sS'fixedRotation'
p9
I00
sS'linearDamping'
p10
I0
sS'density'
p11
F1.0
sS'level'
p12
NsS'static'
p13
I01
sS'world'
p14
NsS'position'
p15
g1
(cBox2D
b2Vec2
p16
g3
Ntp17
Rp18
(dp19
S'y'
p20
F0.0
sS'x'
p21
F90.0
sbsS'size'
p22
(I90
I1
tp23
sS'id'
p24
I0
sS'restitution'
p25
I0
sbsI1
g1
(g2
g3
Ntp26
Rp27
(dp28
g7
Nsg8
F0.0
sg9
I00
sg10
I0
sg11
F1.0
sg12
Nsg13
I01
sg14
Nsg15
g1
(g16
g3
Ntp29
Rp30
(dp31
g20
F180.0
sg21
F90.0
sbsg22
(I90
I1
tp32
sg24
I1
sg25
I0
sbsI2
g1
(g2
g3
Ntp33
Rp34
(dp35
g7
Nsg8
F0.0
sg9
I00
sg10
I0
sg11
F1.0
sg12
Nsg13
I01
sg14
Nsg15
g1
(g16
g3
Ntp36
Rp37
(dp38
g20
F90.0
sg21
F0.0
sbsg22
(I1
I90
tp39
sg24
I2
sg25
I0
sbsI3
g1
(g2
g3
Ntp40
Rp41
(dp42
g7
Nsg8
F0.0
sg9
I00
sg10
I0
sg11
F1.0
sg12
Nsg13
I01
sg14
Nsg15
g1
(g16
g3
Ntp43
Rp44
(dp45
g20
F90.0
sg21
F180.0
sbsg22
(I1
I90
tp46
sg24
I3
sg25
I0
sbsI6
g1
(g2
g3
Ntp47
Rp48
(dp49
g7
Nsg8
F-1.6104043026886008
sg9
I00
sg10
I0
sg11
F1.0
sg12
Nsg13
I01
sg14
Nsg15
g1
(g16
g3
Ntp50
Rp51
(dp52
g20
F148.42527770996094
sg21
F103.67137908935547
sbsg22
(I1
I10
tp53
sg24
I6
sg25
I0
sbsI7
g1
(g2
g3
Ntp54
Rp55
(dp56
g7
Nsg8
F1.9322403292367345
sg9
I00
sg10
I0
sg11
F1.0
sg12
Nsg13
I01
sg14
Nsg15
g1
(g16
g3
Ntp57
Rp58
(dp59
g20
F151.5004119873047
sg21
F122.29529571533203
sbsg22
g53
sg24
I7
sg25
I0
sbsI8
g1
(g2
g3
Ntp60
Rp61
(dp62
g7
Nsg8
F0.37048092195736904
sg9
I00
sg10
I0
sg11
F1.0
sg12
Nsg13
I01
sg14
Nsg15
g1
(g16
g3
Ntp63
Rp64
(dp65
g20
F135.56907653808594
sg21
F150.2176971435547
sbsg22
g53
sg24
I8
sg25
I0
sbsI9
g1
(cobjects
Candy
p66
g3
Ntp67
Rp68
(dp69
g7
NsS'radius'
p70
I2
sg8
F0.0
sg9
I00
sg10
I0
sg11
F0.7
sg12
Nsg13
I00
sg14
Nsg15
g1
(g16
g3
Ntp71
Rp72
(dp73
g20
F90.97795104980469
sg21
F127.58126831054688
sbsg24
I9
sg25
F0.5
sbsI10
g1
(g2
g3
Ntp74
Rp75
(dp76
g7
Nsg8
F0.0
sg9
I00
sg10
I0
sg11
F1.0
sg12
Nsg13
I01
sg14
Nsg15
g1
(g16
g3
Ntp77
Rp78
(dp79
g20
F116.6832275390625
sg21
F153.24913024902344
sbsg22
g53
sg24
I10
sg25
I0
sbsI11
g1
(g2
g3
Ntp80
Rp81
(dp82
g7
Nsg8
F0.0
sg9
I00
sg10
I0
sg11
F1.0
sg12
Nsg13
I01
sg14
Nsg15
g1
(g16
g3
Ntp83
Rp84
(dp85
g20
F96.9178695678711
sg21
F153.24911499023438
sbsg22
g53
sg24
I11
sg25
I0
sbsI12
g1
(g2
g3
Ntp86
Rp87
(dp88
g7
Nsg8
F0.9330018915009793
sg9
I00
sg10
I0
sg11
F1.0
sg12
Nsg13
I01
sg14
Nsg15
g1
(g16
g3
Ntp89
Rp90
(dp91
g20
F149.95489501953125
sg21
F138.7545166015625
sbsg22
g53
sg24
I12
sg25
I0
sbsI13
g1
(cobjects
GorillaHut
p92
g3
Ntp93
Rp94
(dp95
g7
Nsg8
F0.0
sg9
I00
sg10
I0
sg11
F1.0
sg12
Nsg13
I01
sg14
Nsg15
g1
(g16
g3
Ntp96
Rp97
(dp98
g20
F162.14352416992188
sg21
F159.50814819335938
sbsg22
(I10
I10
tp99
sg24
I13
sg25
I0
sbsI14
g1
(g2
g3
Ntp100
Rp101
(dp102
g7
Nsg8
F-1.778686428714859
sg9
I00
sg10
I0
sg11
F1.0
sg12
Nsg13
I01
sg14
Nsg15
g1
(g16
g3
Ntp103
Rp104
(dp105
g20
F69.24638366699219
sg21
F38.61008834838867
sbsg22
g53
sg24
I14
sg25
I0
sbsI15
g1
(g2
g3
Ntp106
Rp107
(dp108
g7
Nsg8
F0.4411664370913705
sg9
I00
sg10
I0
sg11
F1.0
sg12
Nsg13
I01
sg14
Nsg15
g1
(g16
g3
Ntp109
Rp110
(dp111
g20
F58.37543869018555
sg21
F51.786983489990234
sbsg22
g53
sg24
I15
sg25
I0
sbsI16
g1
(g2
g3
Ntp112
Rp113
(dp114
g7
Nsg8
F-0.25001505346172137
sg9
I00
sg10
I0
sg11
F1.0
sg12
Nsg13
I01
sg14
Nsg15
g1
(g16
g3
Ntp115
Rp116
(dp117
g20
F40.58662033081055
sg21
F53.10467529296875
sbsg22
g53
sg24
I16
sg25
I0
sbsI17
g1
(g2
g3
Ntp118
Rp119
(dp120
g7
Nsg8
F-0.5005965593533603
sg9
I00
sg10
I0
sg11
F1.0
sg12
Nsg13
I01
sg14
Nsg15
g1
(g16
g3
Ntp121
Rp122
(dp123
g20
F63.316768646240234
sg21
F23.78607177734375
sbsg22
g53
sg24
I17
sg25
I0
sbsI18
g1
(g2
g3
Ntp124
Rp125
(dp126
g7
Nsg8
F1.9092625512310233
sg9
I00
sg10
I0
sg11
F1.0
sg12
Nsg13
I01
sg14
Nsg15
g1
(g16
g3
Ntp127
Rp128
(dp129
g20
F28.06856918334961
sg21
F42.56315994262695
sbsg22
g53
sg24
I18
sg25
I0
sbsI19
g1
(g2
g3
Ntp130
Rp131
(dp132
g7
Nsg8
F0.6824168027483429
sg9
I00
sg10
I0
sg11
F1.0
sg12
Nsg13
I01
sg14
Nsg15
g1
(g16
g3
Ntp133
Rp134
(dp135
g20
F31.692218780517578
sg21
F26.750877380371094
sbsg22
g53
sg24
I19
sg25
I0
sbsI20
g1
(g2
g3
Ntp136
Rp137
(dp138
g7
Nsg8
F-0.14189688090489405
sg9
I00
sg10
I0
sg11
F1.0
sg12
Nsg13
I01
sg14
Nsg15
g1
(g16
g3
Ntp139
Rp140
(dp141
g20
F41.90431213378906
sg21
F94.2824935913086
sbsg22
g53
sg24
I20
sg25
I0
sbsI21
g1
(g2
g3
Ntp142
Rp143
(dp144
g7
Nsg8
F-0.9395994996345212
sg9
I00
sg10
I0
sg11
F1.0
sg12
Nsg13
I01
sg14
Nsg15
g1
(g16
g3
Ntp145
Rp146
(dp147
g20
F57.38717269897461
sg21
F104.49459075927734
sbsg22
g53
sg24
I21
sg25
I0
sbsI22
g1
(g2
g3
Ntp148
Rp149
(dp150
g7
Nsg8
F1.5707963267949223
sg9
I00
sg10
I0
sg11
F1.0
sg12
Nsg13
I01
sg14
Nsg15
g1
(g16
g3
Ntp151
Rp152
(dp153
g20
F62.65793228149414
sg21
F120.63629913330078
sbsg22
g53
sg24
I22
sg25
I0
sbsI23
g1
(g2
g3
Ntp154
Rp155
(dp156
g7
Nsg8
F0.0
sg9
I00
sg10
I0
sg11
F1.0
sg12
Nsg13
I01
sg14
Nsg15
g1
(g16
g3
Ntp157
Rp158
(dp159
g20
F53.43410110473633
sg21
F129.86013793945312
sbsg22
g53
sg24
I23
sg25
I0
sbsI24
g1
(g2
g3
Ntp160
Rp161
(dp162
g7
Nsg8
F0.9389421018056738
sg9
I00
sg10
I0
sg11
F1.0
sg12
Nsg13
I01
sg14
Nsg15
g1
(g16
g3
Ntp163
Rp164
(dp165
g20
F36.962974548339844
sg21
F118.00090789794922
sbsg22
g53
sg24
I24
sg25
I0
sbsI25
g1
(g2
g3
Ntp166
Rp167
(dp168
g7
Nsg8
F-0.30073749817193235
sg9
I00
sg10
I0
sg11
F1.0
sg12
Nsg13
I01
sg14
Nsg15
g1
(g16
g3
Ntp169
Rp170
(dp171
g20
F33.99817657470703
sg21
F126.56590270996094
sbsg22
g53
sg24
I25
sg25
I0
sbsI26
g1
(g2
g3
Ntp172
Rp173
(dp174
g7
Nsg8
F1.5742092339977902
sg9
I00
sg10
I0
sg11
F1.0
sg12
Nsg13
I01
sg14
Nsg15
g1
(g16
g3
Ntp175
Rp176
(dp177
g20
F24.115501403808594
sg21
F114.04784393310547
sbsg22
g53
sg24
I26
sg25
I0
sbsI28
g1
(cobjects
Gorilla
p178
g3
Ntp179
Rp180
(dp181
g7
Nsg70
I6
sg8
F1.0
sg9
I01
sg10
F0.7
sg11
F0.5
sg12
Nsg13
I00
sg14
Nsg15
g1
(g16
g3
Ntp182
Rp183
(dp184
g20
F103.1769027709961
sg21
F69.90522766113281
sbsg24
I28
sg25
F0.1
sbsI29
g1
(g66
g3
Ntp185
Rp186
(dp187
g7
Nsg70
I2
sg8
F0.0
sg9
I00
sg10
I0
sg11
F0.7
sg12
Nsg13
I00
sg14
Nsg15
g1
(g16
g3
Ntp188
Rp189
(dp190
g20
F54.751792907714844
sg21
F34.98644256591797
sbsg24
I29
sg25
F0.5
sbsI30
g1
(g66
g3
Ntp191
Rp192
(dp193
g7
Nsg70
I2
sg8
F0.0
sg9
I00
sg10
I0
sg11
F0.7
sg12
Nsg13
I00
sg14
Nsg15
g1
(g16
g3
Ntp194
Rp195
(dp196
g20
F46.51622772216797
sg21
F33.998172760009766
sbsg24
I30
sg25
F0.5
sbsI31
g1
(g66
g3
Ntp197
Rp198
(dp199
g7
Nsg70
I2
sg8
F0.0
sg9
I00
sg10
I0
sg11
F0.7
sg12
Nsg13
I00
sg14
Nsg15
g1
(g16
g3
Ntp200
Rp201
(dp202
g20
F32.02164077758789
sg21
F37.29240036010742
sbsg24
I31
sg25
F0.5
sbsI32
g1
(g66
g3
Ntp203
Rp204
(dp205
g7
Nsg70
I2
sg8
F0.0
sg9
I00
sg10
I0
sg11
F0.7
sg12
Nsg13
I00
sg14
Nsg15
g1
(g16
g3
Ntp206
Rp207
(dp208
g20
F47.50449752807617
sg21
F113.05957794189453
sbsg24
I32
sg25
F0.5
sbsI33
g1
(g66
g3
Ntp209
Rp210
(dp211
g7
Nsg70
I2
sg8
F0.0
sg9
I00
sg10
I0
sg11
F0.7
sg12
Nsg13
I00
sg14
Nsg15
g1
(g16
g3
Ntp212
Rp213
(dp214
g20
F32.680484771728516
sg21
F114.37726593017578
sbsg24
I33
sg25
F0.5
sbsI34
g1
(g2
g3
Ntp215
Rp216
(dp217
g7
Nsg8
F0.5528419627102791
sg9
I00
sg10
I0
sg11
F1.0
sg12
Nsg13
I01
sg14
Nsg15
g1
(g16
g3
Ntp218
Rp219
(dp220
g20
F134.4720458984375
sg21
F30.703948974609375
sbsg22
g53
sg24
I34
sg25
I0
sbsI35
g1
(g2
g3
Ntp221
Rp222
(dp223
g7
Nsg8
F0.0
sg9
I00
sg10
I0
sg11
F1.0
sg12
Nsg13
I01
sg14
Nsg15
g1
(g16
g3
Ntp224
Rp225
(dp226
g20
F170.70851135253906
sg21
F48.492767333984375
sbsg22
g53
sg24
I35
sg25
I0
sbsI36
g1
(g2
g3
Ntp227
Rp228
(dp229
g7
Nsg8
F0.0
sg9
I00
sg10
I0
sg11
F1.0
sg12
Nsg13
I01
sg14
Nsg15
g1
(g16
g3
Ntp230
Rp231
(dp232
g20
F151.6020050048828
sg21
F48.1633415222168
sbsg22
g53
sg24
I36
sg25
I0
sbsI37
g1
(g2
g3
Ntp233
Rp234
(dp235
g7
Nsg8
F-0.6064189334745632
sg9
I00
sg10
I0
sg11
F1.0
sg12
Nsg13
I01
sg14
Nsg15
g1
(g16
g3
Ntp236
Rp237
(dp238
g20
F133.4837646484375
sg21
F42.56315994262695
sbsg22
g53
sg24
I37
sg25
I0
sbsI38
g1
(g2
g3
Ntp239
Rp240
(dp241
g7
Nsg8
F-1.6052653727828157
sg9
I00
sg10
I0
sg11
F1.0
sg12
Nsg13
I01
sg14
Nsg15
g1
(g16
g3
Ntp242
Rp243
(dp244
g20
F142.7075958251953
sg21
F21.150699615478516
sbsg22
(F1.2889651781909925
F4.792285812541646
tp245
sg24
I38
sg25
I0
sbsI39
g1
(g2
g3
Ntp246
Rp247
(dp248
g7
Nsg8
F-0.47835145907988524
sg9
I00
sg10
I0
sg11
F1.0
sg12
Nsg13
I01
sg14
Nsg15
g1
(g16
g3
Ntp249
Rp250
(dp251
g20
F151.27256774902344
sg21
F21.15070343017578
sbsg22
g53
sg24
I39
sg25
I0
sbsI40
g1
(g66
g3
Ntp252
Rp253
(dp254
g7
Nsg70
I2
sg8
F0.0
sg9
I00
sg10
I0
sg11
F0.7
sg12
Nsg13
I00
sg14
Nsg15
g1
(g16
g3
Ntp255
Rp256
(dp257
g20
F147.31951904296875
sg21
F25.433189392089844
sbsg24
I40
sg25
F0.5
sbsI41
g1
(g66
g3
Ntp258
Rp259
(dp260
g7
Nsg70
I2
sg8
F0.0
sg9
I00
sg10
I0
sg11
F0.7
sg12
Nsg13
I00
sg14
Nsg15
g1
(g16
g3
Ntp261
Rp262
(dp263
g20
F144.68414306640625
sg21
F30.374526977539062
sbsg24
I41
sg25
F0.5
sbsI42
g1
(g66
g3
Ntp264
Rp265
(dp266
g7
Nsg70
I2
sg8
F0.0
sg9
I00
sg10
I0
sg11
F0.7
sg12
Nsg13
I00
sg14
Nsg15
g1
(g16
g3
Ntp267
Rp268
(dp269
g20
F139.7427978515625
sg21
F33.33932876586914
sbsg24
I42
sg25
F0.5
sbsI43
g1
(g66
g3
Ntp270
Rp271
(dp272
g7
Nsg70
I2
sg8
F0.0
sg9
I00
sg10
I0
sg11
F0.7
sg12
Nsg13
I00
sg14
Nsg15
g1
(g16
g3
Ntp273
Rp274
(dp275
g20
F140.0722198486328
sg21
F41.90431594848633
sbsg24
I43
sg25
F0.5
sbs.