(dp0
I0
ccopy_reg
_reconstructor
p1
(cobjects
Box
p2
c__builtin__
object
p3
Ntp4
Rp5
(dp6
S'body'
p7
NsS'angle'
p8
F0.0
sS'fixedRotation'
p9
I00
sS'linearDamping'
p10
I0
sS'density'
p11
F1.0
sS'level'
p12
NsS'static'
p13
I01
sS'world'
p14
NsS'position'
p15
g1
(cBox2D
b2Vec2
p16
g3
Ntp17
Rp18
(dp19
S'y'
p20
F0.0
sS'x'
p21
F100.0
sbsS'size'
p22
(I100
I1
tp23
sS'id'
p24
I0
sS'restitution'
p25
I0
sbsI1
g1
(g2
g3
Ntp26
Rp27
(dp28
g7
Nsg8
F0.0
sg9
I00
sg10
I0
sg11
F1.0
sg12
Nsg13
I01
sg14
Nsg15
g1
(g16
g3
Ntp29
Rp30
(dp31
g20
F200.0
sg21
F100.0
sbsg22
(I100
I1
tp32
sg24
I1
sg25
I0
sbsI2
g1
(g2
g3
Ntp33
Rp34
(dp35
g7
Nsg8
F0.0
sg9
I00
sg10
I0
sg11
F1.0
sg12
Nsg13
I01
sg14
Nsg15
g1
(g16
g3
Ntp36
Rp37
(dp38
g20
F100.0
sg21
F0.0
sbsg22
(I1
I100
tp39
sg24
I2
sg25
I0
sbsI3
g1
(g2
g3
Ntp40
Rp41
(dp42
g7
Nsg8
F0.0
sg9
I00
sg10
I0
sg11
F1.0
sg12
Nsg13
I01
sg14
Nsg15
g1
(g16
g3
Ntp43
Rp44
(dp45
g20
F100.0
sg21
F200.0
sbsg22
(I1
I100
tp46
sg24
I3
sg25
I0
sbsI5
g1
(g2
g3
Ntp47
Rp48
(dp49
g7
Nsg8
F-0.3827650908280559
sg9
I00
sg10
I0
sg11
F1.0
sg12
Nsg13
I01
sg14
Nsg15
g1
(g16
g3
Ntp50
Rp51
(dp52
g20
F132.26052856445312
sg21
F38.506141662597656
sbsg22
(F1.0650064800279544
F33.60340891890569
tp53
sg24
I5
sg25
I0
sbsI8
g1
(cobjects
Candy
p54
g3
Ntp55
Rp56
(dp57
g7
NsS'radius'
p58
I2
sg8
F0.0
sg9
I00
sg10
I0
sg11
F0.7
sg12
Nsg13
I00
sg14
Nsg15
g1
(g16
g3
Ntp59
Rp60
(dp61
g20
F135.69500732421875
sg21
F141.74497985839844
sbsg24
I8
sg25
F0.5
sbsI9
g1
(g2
g3
Ntp62
Rp63
(dp64
g7
Nsg8
F-0.38074807770949753
sg9
I00
sg10
I0
sg11
F1.0
sg12
Nsg13
I01
sg14
Nsg15
g1
(g16
g3
Ntp65
Rp66
(dp67
g20
F87.52070617675781
sg21
F60.7470817565918
sbsg22
(F37.421159687570594
F1.2149743823362567
tp68
sg24
I9
sg25
I0
sbsI10
g1
(g2
g3
Ntp69
Rp70
(dp71
g7
Nsg8
F0.9893677584220136
sg9
I00
sg10
I0
sg11
F1.0
sg12
Nsg13
I01
sg14
Nsg15
g1
(g16
g3
Ntp72
Rp73
(dp74
g20
F149.1847381591797
sg21
F73.4262924194336
sbsg22
(F1.1427437769161173
F26.94367390212717
tp75
sg24
I10
sg25
I0
sbsI12
g1
(cobjects
Gorilla
p76
g3
Ntp77
Rp78
(dp79
g7
Nsg58
I4
sg8
F1.0
sg9
I01
sg10
F0.7
sg11
F0.5
sg12
Nsg13
I00
sg14
Nsg15
g1
(g16
g3
Ntp80
Rp81
(dp82
g20
F104.63926696777344
sg21
F174.78993225097656
sbsg24
I12
sg25
F0.1
sbsI13
g1
(g2
g3
Ntp83
Rp84
(dp85
g7
Nsg8
F-0.5807022741804545
sg9
I00
sg10
I0
sg11
F1.0
sg12
Nsg13
I01
sg14
Nsg15
g1
(g16
g3
Ntp86
Rp87
(dp88
g20
F113.27562713623047
sg21
F121.38084411621094
sbsg22
(F1.2500031471216424
F49.000134277753546
tp89
sg24
I13
sg25
I0
sbsI14
g1
(g2
g3
Ntp90
Rp91
(dp92
g7
Nsg8
F1.2992699907992138
sg9
I00
sg10
I0
sg11
F1.0
sg12
Nsg13
I01
sg14
Nsg15
g1
(g16
g3
Ntp93
Rp94
(dp95
g20
F161.2301788330078
sg21
F122.97175598144531
sbsg22
(F1.4483304618944366
F27.389689243430684
tp96
sg24
I14
sg25
I0
sbsI15
g1
(g2
g3
Ntp97
Rp98
(dp99
g7
Nsg8
F-0.5252086424814865
sg9
I00
sg10
I0
sg11
F1.0
sg12
Nsg13
I01
sg14
Nsg15
g1
(g16
g3
Ntp100
Rp101
(dp102
g20
F124.63927459716797
sg21
F89.10810852050781
sbsg22
(F1.3333370632500625
F11.428554986476378
tp103
sg24
I15
sg25
I0
sbsI16
g1
(g54
g3
Ntp104
Rp105
(dp106
g7
Nsg58
I2
sg8
F0.0
sg9
I00
sg10
I0
sg11
F0.7
sg12
Nsg13
I00
sg14
Nsg15
g1
(g16
g3
Ntp107
Rp108
(dp109
g20
F124.63927459716797
sg21
F55.926292419433594
sbsg24
I16
sg25
F0.5
sbsI17
g1
(g54
g3
Ntp110
Rp111
(dp112
g7
Nsg58
I2
sg8
F0.0
sg9
I00
sg10
I0
sg11
F0.7
sg12
Nsg13
I00
sg14
Nsg15
g1
(g16
g3
Ntp113
Rp114
(dp115
g20
F125.09381866455078
sg21
F77.28993225097656
sbsg24
I17
sg25
F0.5
sbsI18
g1
(g54
g3
Ntp116
Rp117
(dp118
g7
Nsg58
I2
sg8
F0.0
sg9
I00
sg10
I0
sg11
F0.7
sg12
Nsg13
I00
sg14
Nsg15
g1
(g16
g3
Ntp119
Rp120
(dp121
g20
F108.95745086669922
sg21
F73.4262924194336
sbsg24
I18
sg25
F0.5
sbsI19
g1
(g54
g3
Ntp122
Rp123
(dp124
g7
Nsg58
I2
sg8
F0.0
sg9
I00
sg10
I0
sg11
F0.7
sg12
Nsg13
I00
sg14
Nsg15
g1
(g16
g3
Ntp125
Rp126
(dp127
g20
F92.13926696777344
sg21
F81.83538055419922
sbsg24
I19
sg25
F0.5
sbsI20
g1
(g54
g3
Ntp128
Rp129
(dp130
g7
Nsg58
I2
sg8
F0.0
sg9
I00
sg10
I0
sg11
F0.7
sg12
Nsg13
I00
sg14
Nsg15
g1
(g16
g3
Ntp131
Rp132
(dp133
g20
F104.41200256347656
sg21
F60.926292419433594
sbsg24
I20
sg25
F0.5
sbsI21
g1
(g2
g3
Ntp134
Rp135
(dp136
g7
Nsg8
F0.0
sg9
I00
sg10
I0
sg11
F1.0
sg12
Nsg13
I01
sg14
Nsg15
g1
(g16
g3
Ntp137
Rp138
(dp139
g20
F58.17076873779297
sg21
F33.606971740722656
sbsg22
(I2
I2
tp140
sg24
I21
sg25
I0
sbsI22
g1
(g2
g3
Ntp141
Rp142
(dp143
g7
Nsg8
F0.0
sg9
I00
sg10
I0
sg11
F1.0
sg12
Nsg13
I01
sg14
Nsg15
g1
(g16
g3
Ntp144
Rp145
(dp146
g20
F19.639312744140625
sg21
F21.64893341064453
sbsg22
g140
sg24
I22
sg25
I0
sbsI23
g1
(g54
g3
Ntp147
Rp148
(dp149
g7
Nsg58
I2
sg8
F0.0
sg9
I00
sg10
I0
sg11
F0.7
sg12
Nsg13
I00
sg14
Nsg15
g1
(g16
g3
Ntp150
Rp151
(dp152
g20
F37.797813415527344
sg21
F44.2363395690918
sbsg24
I23
sg25
F0.5
sbsI24
g1
(g54
g3
Ntp153
Rp154
(dp155
g7
Nsg58
I2
sg8
F0.0
sg9
I00
sg10
I0
sg11
F0.7
sg12
Nsg13
I00
sg14
Nsg15
g1
(g16
g3
Ntp156
Rp157
(dp158
g20
F24.5111083984375
sg21
F74.79576873779297
sbsg24
I24
sg25
F0.5
sbsI25
g1
(g54
g3
Ntp159
Rp160
(dp161
g7
Nsg58
I2
sg8
F0.0
sg9
I00
sg10
I0
sg11
F0.7
sg12
Nsg13
I00
sg14
Nsg15
g1
(g16
g3
Ntp162
Rp163
(dp164
g20
F20.967987060546875
sg21
F88.08247375488281
sbsg24
I25
sg25
F0.5
sbsI26
g1
(g54
g3
Ntp165
Rp166
(dp167
g7
Nsg58
I2
sg8
F0.0
sg9
I00
sg10
I0
sg11
F0.7
sg12
Nsg13
I00
sg14
Nsg15
g1
(g16
g3
Ntp168
Rp169
(dp170
g20
F47.0985107421875
sg21
F99.15473175048828
sbsg24
I26
sg25
F0.5
sbsI27
g1
(g54
g3
Ntp171
Rp172
(dp173
g7
Nsg58
I2
sg8
F0.0
sg9
I00
sg10
I0
sg11
F0.7
sg12
Nsg13
I00
sg14
Nsg15
g1
(g16
g3
Ntp174
Rp175
(dp176
g20
F55.070533752441406
sg21
F73.46709442138672
sbsg24
I27
sg25
F0.5
sbsI28
g1
(g54
g3
Ntp177
Rp178
(dp179
g7
Nsg58
I2
sg8
F0.0
sg9
I00
sg10
I0
sg11
F0.7
sg12
Nsg13
I00
sg14
Nsg15
g1
(g16
g3
Ntp180
Rp181
(dp182
g20
F51.52741241455078
sg21
F62.394840240478516
sbsg24
I28
sg25
F0.5
sbsI29
g1
(g54
g3
Ntp183
Rp184
(dp185
g7
Nsg58
I2
sg8
F0.0
sg9
I00
sg10
I0
sg11
F0.7
sg12
Nsg13
I00
sg14
Nsg15
g1
(g16
g3
Ntp186
Rp187
(dp188
g20
F43.555389404296875
sg21
F75.68154907226562
sbsg24
I29
sg25
F0.5
sbsI30
g1
(g54
g3
Ntp189
Rp190
(dp191
g7
Nsg58
I2
sg8
F0.0
sg9
I00
sg10
I0
sg11
F0.7
sg12
Nsg13
I00
sg14
Nsg15
g1
(g16
g3
Ntp192
Rp193
(dp194
g20
F39.569374084472656
sg21
F86.3109130859375
sbsg24
I30
sg25
F0.5
sbsI31
g1
(g54
g3
Ntp195
Rp196
(dp197
g7
Nsg58
I2
sg8
F0.0
sg9
I00
sg10
I0
sg11
F0.7
sg12
Nsg13
I00
sg14
Nsg15
g1
(g16
g3
Ntp198
Rp199
(dp200
g20
F32.926025390625
sg21
F94.725830078125
sbsg24
I31
sg25
F0.5
sbsI32
g1
(g54
g3
Ntp201
Rp202
(dp203
g7
Nsg58
I2
sg8
F0.0
sg9
I00
sg10
I0
sg11
F0.7
sg12
Nsg13
I00
sg14
Nsg15
g1
(g16
g3
Ntp204
Rp205
(dp206
g20
F28.94001007080078
sg21
F107.12675476074219
sbsg24
I32
sg25
F0.5
sbsI33
g1
(g54
g3
Ntp207
Rp208
(dp209
g7
Nsg58
I2
sg8
F0.0
sg9
I00
sg10
I0
sg11
F0.7
sg12
Nsg13
I00
sg14
Nsg15
g1
(g16
g3
Ntp210
Rp211
(dp212
g20
F24.953994750976562
sg21
F111.99855041503906
sbsg24
I33
sg25
F0.5
sbsI34
g1
(g54
g3
Ntp213
Rp214
(dp215
g7
Nsg58
I2
sg8
F0.0
sg9
I00
sg10
I0
sg11
F0.7
sg12
Nsg13
I00
sg14
Nsg15
g1
(g16
g3
Ntp216
Rp217
(dp218
g20
F17.42486572265625
sg21
F114.65589141845703
sbsg24
I34
sg25
F0.5
sbsI35
g1
(g54
g3
Ntp219
Rp220
(dp221
g7
Nsg58
I2
sg8
F0.0
sg9
I00
sg10
I0
sg11
F0.7
sg12
Nsg13
I00
sg14
Nsg15
g1
(g16
g3
Ntp222
Rp223
(dp224
g20
F12.995964050292969
sg21
F104.02652740478516
sbsg24
I35
sg25
F0.5
sbsI36
g1
(g54
g3
Ntp225
Rp226
(dp227
g7
Nsg58
I2
sg8
F0.0
sg9
I00
sg10
I0
sg11
F0.7
sg12
Nsg13
I00
sg14
Nsg15
g1
(g16
g3
Ntp228
Rp229
(dp230
g20
F12.553070068359375
sg21
F87.19669342041016
sbsg24
I36
sg25
F0.5
sbsI37
g1
(g54
g3
Ntp231
Rp232
(dp233
g7
Nsg58
I2
sg8
F0.0
sg9
I00
sg10
I0
sg11
F0.7
sg12
Nsg13
I00
sg14
Nsg15
g1
(g16
g3
Ntp234
Rp235
(dp236
g20
F13.438850402832031
sg21
F69.03819274902344
sbsg24
I37
sg25
F0.5
sbs.