(dp0
I0
ccopy_reg
_reconstructor
p1
(cobjects
Box
p2
c__builtin__
object
p3
Ntp4
Rp5
(dp6
S'body'
p7
NsS'angle'
p8
F0.0
sS'fixedRotation'
p9
I00
sS'linearDamping'
p10
I0
sS'density'
p11
F1.0
sS'level'
p12
NsS'static'
p13
I01
sS'world'
p14
NsS'position'
p15
g1
(cBox2D
b2Vec2
p16
g3
Ntp17
Rp18
(dp19
S'y'
p20
F0.0
sS'x'
p21
F40.0
sbsS'size'
p22
(I40
I1
tp23
sS'id'
p24
I0
sS'restitution'
p25
I0
sbsI1
g1
(g2
g3
Ntp26
Rp27
(dp28
g7
Nsg8
F0.0
sg9
I00
sg10
I0
sg11
F1.0
sg12
Nsg13
I01
sg14
Nsg15
g1
(g16
g3
Ntp29
Rp30
(dp31
g20
F80.0
sg21
F40.0
sbsg22
(I40
I1
tp32
sg24
I1
sg25
I0
sbsI2
g1
(g2
g3
Ntp33
Rp34
(dp35
g7
Nsg8
F0.0
sg9
I00
sg10
I0
sg11
F1.0
sg12
Nsg13
I01
sg14
Nsg15
g1
(g16
g3
Ntp36
Rp37
(dp38
g20
F40.0
sg21
F0.0
sbsg22
(I1
I40
tp39
sg24
I2
sg25
I0
sbsI3
g1
(g2
g3
Ntp40
Rp41
(dp42
g7
Nsg8
F0.0
sg9
I00
sg10
I0
sg11
F1.0
sg12
Nsg13
I01
sg14
Nsg15
g1
(g16
g3
Ntp43
Rp44
(dp45
g20
F40.0
sg21
F80.0
sbsg22
(I1
I40
tp46
sg24
I3
sg25
I0
sbsI4
g1
(cobjects
Candy
p47
g3
Ntp48
Rp49
(dp50
g7
Nsg8
F0.0
sg9
I00
sg10
I0
sg11
F1.0
sg12
Nsg13
I00
sS'radius'
p51
I2
sg14
Nsg15
g1
(g16
g3
Ntp52
Rp53
(dp54
g20
F46.6363639831543
sg21
F23.545454025268555
sbsg24
I4
sg25
F0.5
sbsI5
g1
(g47
g3
Ntp55
Rp56
(dp57
g7
Nsg8
F0.0
sg9
I00
sg10
I0
sg11
F1.0
sg12
Nsg13
I00
sg51
I2
sg14
Nsg15
g1
(g16
g3
Ntp58
Rp59
(dp60
g20
F33.727272033691406
sg21
F23.545454025268555
sbsg24
I5
sg25
F0.5
sbsI6
g1
(g47
g3
Ntp61
Rp62
(dp63
g7
Nsg8
F0.0
sg9
I00
sg10
I0
sg11
F1.0
sg12
Nsg13
I00
sg51
I2
sg14
Nsg15
g1
(g16
g3
Ntp64
Rp65
(dp66
g20
F28.363636016845703
sg21
F48.09090805053711
sbsg24
I6
sg25
F0.5
sbsI7
g1
(cobjects
Helicopter
p67
g3
Ntp68
Rp69
(dp70
g7
Nsg8
F1.0
sg9
I01
sg10
I1
sg11
I1
sg12
Nsg13
I00
sg51
I3
sg14
Nsg15
g1
(g16
g3
Ntp71
Rp72
(dp73
g20
F50.81818389892578
sg21
F40.818180084228516
sbsg24
I7
sg25
F0.1
sbsI8
g1
(g47
g3
Ntp74
Rp75
(dp76
g7
Nsg51
I2
sg8
F0.0
sg9
I00
sg10
I0
sg11
F1.0
sg12
Nsg13
I00
sg14
Nsg15
g1
(g16
g3
Ntp77
Rp78
(dp79
g20
F22.81818199157715
sg21
F14.181818008422852
sbsg24
I8
sg25
F0.5
sbsI9
g1
(g2
g3
Ntp80
Rp81
(dp82
g7
Nsg8
F0.0
sg9
I00
sg10
I0
sg11
F1.0
sg12
Nsg13
I01
sg14
Nsg15
g1
(g16
g3
Ntp83
Rp84
(dp85
g20
F16.727272033691406
sg21
F21.545454025268555
sbsg22
(I2
I2
tp86
sg24
I9
sg25
I0
sbsI10
g1
(g2
g3
Ntp87
Rp88
(dp89
g7
Nsg8
F0.0
sg9
I00
sg10
I0
sg11
F1.0
sg12
Nsg13
I01
sg14
Nsg15
g1
(g16
g3
Ntp90
Rp91
(dp92
g20
F14.272726058959961
sg21
F48.0
sbsg22
g86
sg24
I10
sg25
I0
sbsI11
g1
(g2
g3
Ntp93
Rp94
(dp95
g7
Nsg8
F0.0
sg9
I00
sg10
I0
sg11
F1.0
sg12
Nsg13
I01
sg14
Nsg15
g1
(g16
g3
Ntp96
Rp97
(dp98
g20
F19.909090042114258
sg21
F65.81818389892578
sbsg22
g86
sg24
I11
sg25
I0
sbsI12
g1
(g2
g3
Ntp99
Rp100
(dp101
g7
Nsg8
F0.0
sg9
I00
sg10
I0
sg11
F1.0
sg12
Nsg13
I01
sg14
Nsg15
g1
(g16
g3
Ntp102
Rp103
(dp104
g20
F41.6363639831543
sg21
F60.54545593261719
sbsg22
g86
sg24
I12
sg25
I0
sbsI13
g1
(g2
g3
Ntp105
Rp106
(dp107
g7
Nsg8
F0.0
sg9
I00
sg10
I0
sg11
F1.0
sg12
Nsg13
I01
sg14
Nsg15
g1
(g16
g3
Ntp108
Rp109
(dp110
g20
F63.727272033691406
sg21
F32.727272033691406
sbsg22
g86
sg24
I13
sg25
I0
sbsI14
g1
(g2
g3
Ntp111
Rp112
(dp113
g7
Nsg8
F0.0
sg9
I00
sg10
I0
sg11
F1.0
sg12
Nsg13
I01
sg14
Nsg15
g1
(g16
g3
Ntp114
Rp115
(dp116
g20
F61.0
sg21
F15.909090042114258
sbsg22
g86
sg24
I14
sg25
I0
sbs.